target datalayout = "e-m:e-p270:32:32-p271:32:32-p272:64:64-i64:64-i128:128-f80:128-n8:16:32:64-S128"
target triple = "x86_64-pc-linux-gnu"

%"struct.smt::almost_cg_table::cg_hash" = type { ptr, ptr }
%"struct.smt::almost_cg_table::cg_eq" = type { ptr, ptr }
%"class.smt::almost_cg_table" = type { %class.region, ptr, ptr, %class.map }
%class.region = type { ptr, ptr, ptr, ptr, ptr }
%class.map = type { %class.table2map }
%class.table2map = type { %class.core_hashtable }
%class.core_hashtable = type <{ %"struct.table2map<default_map_entry<smt::enode *, list<smt::enode *> *>, smt::almost_cg_table::cg_hash, smt::almost_cg_table::cg_eq>::entry_hash_proc", %"struct.table2map<default_map_entry<smt::enode *, list<smt::enode *> *>, smt::almost_cg_table::cg_hash, smt::almost_cg_table::cg_eq>::entry_eq_proc", ptr, i32, i32, i32, [4 x i8] }>
%"struct.table2map<default_map_entry<smt::enode *, list<smt::enode *> *>, smt::almost_cg_table::cg_hash, smt::almost_cg_table::cg_eq>::entry_hash_proc" = type { %"struct.smt::almost_cg_table::cg_hash" }
%"struct.table2map<default_map_entry<smt::enode *, list<smt::enode *> *>, smt::almost_cg_table::cg_hash, smt::almost_cg_table::cg_eq>::entry_eq_proc" = type { %"struct.smt::almost_cg_table::cg_eq" }
%struct._key_data = type { ptr, ptr }
%class.default_hash_entry = type { i32, i32, %struct._key_data }

; Function Attrs: mustprogress nounwind uwtable
define linkonce_odr hidden noundef nonnull align 8 dereferenceable(16) ptr @_ZN18default_hash_entryI9_key_dataIPN3smt5enodeEP4listIS3_EEE8get_dataEv(ptr noundef nonnull align 8 dereferenceable(24) %0) #4 comdat align 2 {
  %2 = alloca ptr, align 8
  store ptr %0, ptr %2, align 8, !tbaa !93
  %3 = load ptr, ptr %2, align 8
  %4 = getelementptr inbounds nuw %class.default_hash_entry, ptr %3, i32 0, i32 2
  ret ptr %4
}

; Function Attrs: mustprogress uwtable
define linkonce_odr hidden noundef ptr @_ZNK9table2mapI17default_map_entryIPN3smt5enodeEP4listIS3_EENS1_15almost_cg_table7cg_hashENS8_5cg_eqEE9find_coreERKS3_(ptr noundef nonnull align 8 dereferenceable(56) %0, ptr noundef nonnull align 8 dereferenceable(8) %1) #6 comdat align 2 {
  %3 = alloca ptr, align 8
  %4 = alloca ptr, align 8
  %5 = alloca %struct._key_data, align 8
  store ptr %0, ptr %3, align 8, !tbaa !75
  store ptr %1, ptr %4, align 8, !tbaa !72
  %6 = load ptr, ptr %3, align 8
  %7 = getelementptr inbounds nuw %class.table2map, ptr %6, i32 0, i32 0
  call void @llvm.lifetime.start.p0(i64 16, ptr %5) #3
  %8 = getelementptr inbounds nuw %struct._key_data, ptr %5, i32 0, i32 0
  %9 = load ptr, ptr %4, align 8, !tbaa !72
  %10 = load ptr, ptr %9, align 8, !tbaa !24
  store ptr %10, ptr %8, align 8, !tbaa !82
  %11 = getelementptr inbounds nuw %struct._key_data, ptr %5, i32 0, i32 1
  store ptr null, ptr %11, align 8, !tbaa !80
  %12 = call noundef ptr @_ZNK14core_hashtableI17default_map_entryIPN3smt5enodeEP4listIS3_EEN9table2mapIS7_NS1_15almost_cg_table7cg_hashENS9_5cg_eqEE15entry_hash_procENSC_13entry_eq_procEE9find_coreERK9_key_dataIS3_S6_E(ptr noundef nonnull align 8 dereferenceable(52) %7, ptr noundef nonnull align 8 dereferenceable(16) %5)
  call void @llvm.lifetime.end.p0(i64 16, ptr %5) #3
  ret ptr %12
}

; Function Attrs: mustprogress uwtable
define linkonce_odr hidden noundef zeroext i1 @_ZNK9table2mapI17default_map_entryIPN3smt5enodeEP4listIS3_EENS1_15almost_cg_table7cg_hashENS8_5cg_eqEE4findERKS3_RS6_(ptr noundef nonnull align 8 dereferenceable(56) %0, ptr noundef nonnull align 8 dereferenceable(8) %1, ptr noundef nonnull align 8 dereferenceable(8) %2) #6 comdat align 2 {
  %4 = alloca ptr, align 8
  %5 = alloca ptr, align 8
  %6 = alloca ptr, align 8
  %7 = alloca ptr, align 8
  store ptr %0, ptr %4, align 8, !tbaa !75
  store ptr %1, ptr %5, align 8, !tbaa !72
  store ptr %2, ptr %6, align 8, !tbaa !91
  %8 = load ptr, ptr %4, align 8
  call void @llvm.lifetime.start.p0(i64 8, ptr %7) #3
  %9 = load ptr, ptr %5, align 8, !tbaa !72
  %10 = call noundef ptr @_ZNK9table2mapI17default_map_entryIPN3smt5enodeEP4listIS3_EENS1_15almost_cg_table7cg_hashENS8_5cg_eqEE9find_coreERKS3_(ptr noundef nonnull align 8 dereferenceable(56) %8, ptr noundef nonnull align 8 dereferenceable(8) %9)
  store ptr %10, ptr %7, align 8, !tbaa !77
  %11 = load ptr, ptr %7, align 8, !tbaa !77
  %12 = icmp ne ptr %11, null
  br i1 %12, label %13, label %19

13:                                               ; preds = %3
  %14 = load ptr, ptr %7, align 8, !tbaa !77
  %15 = call noundef nonnull align 8 dereferenceable(16) ptr @_ZN18default_hash_entryI9_key_dataIPN3smt5enodeEP4listIS3_EEE8get_dataEv(ptr noundef nonnull align 8 dereferenceable(24) %14)
  %16 = getelementptr inbounds nuw %struct._key_data, ptr %15, i32 0, i32 1
  %17 = load ptr, ptr %16, align 8, !tbaa !80
  %18 = load ptr, ptr %6, align 8, !tbaa !91
  store ptr %17, ptr %18, align 8, !tbaa !78
  br label %19

19:                                               ; preds = %13, %3
  %20 = load ptr, ptr %7, align 8, !tbaa !77
  %21 = icmp ne ptr null, %20
  call void @llvm.lifetime.end.p0(i64 8, ptr %7) #3
  ret i1 %21
}

; Function Attrs: mustprogress uwtable
define hidden noundef ptr @_ZN3smt15almost_cg_table4findEPNS_5enodeE(ptr noundef nonnull align 8 dereferenceable(112) %0, ptr noundef %1) #6 align 2 {
  %3 = alloca ptr, align 8
  %4 = alloca ptr, align 8
  %5 = alloca ptr, align 8
  store ptr %0, ptr %3, align 8, !tbaa !58
  store ptr %1, ptr %4, align 8, !tbaa !24
  %6 = load ptr, ptr %3, align 8
  call void @llvm.lifetime.start.p0(i64 8, ptr %5) #3
  store ptr null, ptr %5, align 8, !tbaa !78
  %7 = getelementptr inbounds nuw %"class.smt::almost_cg_table", ptr %6, i32 0, i32 3
  %8 = call noundef zeroext i1 @_ZNK9table2mapI17default_map_entryIPN3smt5enodeEP4listIS3_EENS1_15almost_cg_table7cg_hashENS8_5cg_eqEE4findERKS3_RS6_(ptr noundef nonnull align 8 dereferenceable(56) %7, ptr noundef nonnull align 8 dereferenceable(8) %4, ptr noundef nonnull align 8 dereferenceable(8) %5)
  %9 = load ptr, ptr %5, align 8, !tbaa !78
  call void @llvm.lifetime.end.p0(i64 8, ptr %5) #3
  ret ptr %9
}