; Function Attrs: mustprogress uwtable
define hidden noundef ptr @_ZN3smt15almost_cg_table4findEPNS_5enodeE(ptr noundef nonnull align 8 dereferenceable(112) %0, ptr noundef %1) local_unnamed_addr #5 align 2 {
  %3 = alloca %struct._key_data, align 8
  %4 = getelementptr inbounds nuw i8, ptr %0, i64 56
  call void @llvm.lifetime.start.p0(i64 16, ptr nonnull %3) #8
  store ptr %1, ptr %3, align 8, !tbaa !65
  %5 = getelementptr inbounds nuw i8, ptr %3, i64 8
  store ptr null, ptr %5, align 8, !tbaa !66
  %6 = call noundef ptr @_ZNK14core_hashtableI17default_map_entryIPN3smt5enodeEP4listIS3_EEN9table2mapIS7_NS1_15almost_cg_table7cg_hashENS9_5cg_eqEE15entry_hash_procENSC_13entry_eq_procEE9find_coreERK9_key_dataIS3_S6_E(ptr noundef nonnull align 8 dereferenceable(56) %4, ptr noundef nonnull align 8 dereferenceable(16) %3)
  call void @llvm.lifetime.end.p0(i64 16, ptr nonnull %3) #8
  %.not = icmp eq ptr %6, null
  br i1 %.not, label %_ZNK9table2mapI17default_map_entryIPN3smt5enodeEP4listIS3_EENS1_15almost_cg_table7cg_hashENS8_5cg_eqEE4findERKS3_RS6_.exit, label %7

7:                                                ; preds = %2
  %8 = getelementptr inbounds nuw i8, ptr %6, i64 16
  %9 = load ptr, ptr %8, align 8, !tbaa !66
  br label %_ZNK9table2mapI17default_map_entryIPN3smt5enodeEP4listIS3_EENS1_15almost_cg_table7cg_hashENS8_5cg_eqEE4findERKS3_RS6_.exit

_ZNK9table2mapI17default_map_entryIPN3smt5enodeEP4listIS3_EENS1_15almost_cg_table7cg_hashENS8_5cg_eqEE4findERKS3_RS6_.exit: ; preds = %2, %7
  %.0 = phi ptr [ %9, %7 ], [ null, %2 ]
  ret ptr %.0
}